target datalayout = "e-m:e-p270:32:32-p271:32:32-p272:64:64-i64:64-i128:128-f80:128-n8:16:32:64-S128"
target triple = "x86_64-pc-linux-gnu"

%struct.malloc_state = type { i32, i32, i64, i64, ptr, ptr, ptr, i64, i64, i64, [66 x ptr], [32 x ptr], i64, i64, i64, i32, i32, %struct.malloc_segment, ptr, i64 }
%struct.malloc_segment = type { ptr, i64, ptr, i32 }

@_gm_ = internal global %struct.malloc_state zeroinitializer, align 8

; Function Attrs: nounwind uwtable
define internal i32 @spin_acquire_lock(ptr noundef %0) #0 {
  %2 = alloca ptr, align 8
  %3 = alloca i32, align 4
  store ptr %0, ptr %2, align 8, !tbaa !16
  call void @llvm.lifetime.start.p0(i64 4, ptr %3) #9
  store i32 0, ptr %3, align 4, !tbaa !14
  br label %4

4:                                                ; preds = %21, %1
  %5 = load ptr, ptr %2, align 8, !tbaa !16
  %6 = load volatile i32, ptr %5, align 4, !tbaa !14
  %7 = icmp ne i32 %6, 0
  br i1 %7, label %12, label %8

8:                                                ; preds = %4
  %9 = load ptr, ptr %2, align 8, !tbaa !16
  %10 = atomicrmw xchg ptr %9, i32 1 seq_cst, align 4
  %11 = icmp ne i32 %10, 0
  br label %12

12:                                               ; preds = %8, %4
  %13 = phi i1 [ true, %4 ], [ %11, %8 ]
  br i1 %13, label %14, label %22

14:                                               ; preds = %12
  %15 = load i32, ptr %3, align 4, !tbaa !14
  %16 = add nsw i32 %15, 1
  store i32 %16, ptr %3, align 4, !tbaa !14
  %17 = and i32 %16, 63
  %18 = icmp eq i32 %17, 0
  br i1 %18, label %19, label %21

19:                                               ; preds = %14
  %20 = call i32 @sched_yield() #9
  br label %21

21:                                               ; preds = %19, %14
  br label %4, !llvm.loop !34

22:                                               ; preds = %12
  call void @llvm.lifetime.end.p0(i64 4, ptr %3) #9
  ret i32 0
}

; Function Attrs: nounwind uwtable
define hidden ptr @dlrealloc_in_place(ptr noundef %0, i64 noundef %1) #0 {
  %3 = alloca ptr, align 8
  %4 = alloca i64, align 8
  %5 = alloca ptr, align 8
  %6 = alloca i64, align 8
  %7 = alloca ptr, align 8
  %8 = alloca ptr, align 8
  %9 = alloca ptr, align 8
  store ptr %0, ptr %3, align 8, !tbaa !16
  store i64 %1, ptr %4, align 8, !tbaa !3
  call void @llvm.lifetime.start.p0(i64 8, ptr %5) #9
  store ptr null, ptr %5, align 8, !tbaa !16
  %10 = load ptr, ptr %3, align 8, !tbaa !16
  %11 = icmp ne ptr %10, null
  br i1 %11, label %12, label %69

12:                                               ; preds = %2
  %13 = load i64, ptr %4, align 8, !tbaa !3
  %14 = icmp uge i64 %13, -128
  br i1 %14, label %15, label %17

15:                                               ; preds = %12
  %16 = call ptr @__errno_location() #11
  store i32 12, ptr %16, align 4, !tbaa !14
  br label %68

17:                                               ; preds = %12
  call void @llvm.lifetime.start.p0(i64 8, ptr %6) #9
  %18 = load i64, ptr %4, align 8, !tbaa !3
  %19 = icmp ult i64 %18, 23
  br i1 %19, label %20, label %21

20:                                               ; preds = %17
  br label %26

21:                                               ; preds = %17
  %22 = load i64, ptr %4, align 8, !tbaa !3
  %23 = add i64 %22, 8
  %24 = add i64 %23, 15
  %25 = and i64 %24, -16
  br label %26

26:                                               ; preds = %21, %20
  %27 = phi i64 [ 32, %20 ], [ %25, %21 ]
  store i64 %27, ptr %6, align 8, !tbaa !3
  call void @llvm.lifetime.start.p0(i64 8, ptr %7) #9
  %28 = load ptr, ptr %3, align 8, !tbaa !16
  %29 = getelementptr inbounds i8, ptr %28, i64 -16
  store ptr %29, ptr %7, align 8, !tbaa !16
  call void @llvm.lifetime.start.p0(i64 8, ptr %8) #9
  store ptr @_gm_, ptr %8, align 8, !tbaa !16
  %30 = load ptr, ptr %8, align 8, !tbaa !16
  %31 = getelementptr inbounds nuw %struct.malloc_state, ptr %30, i32 0, i32 15
  %32 = load i32, ptr %31, align 8, !tbaa !10
  %33 = and i32 %32, 2
  %34 = icmp ne i32 %33, 0
  br i1 %34, label %35, label %46

35:                                               ; preds = %26
  %36 = load ptr, ptr %8, align 8, !tbaa !16
  %37 = getelementptr inbounds nuw %struct.malloc_state, ptr %36, i32 0, i32 16
  %38 = atomicrmw xchg ptr %37, i32 1 seq_cst, align 4
  %39 = icmp ne i32 %38, 0
  br i1 %39, label %40, label %45

40:                                               ; preds = %35
  %41 = load ptr, ptr %8, align 8, !tbaa !16
  %42 = getelementptr inbounds nuw %struct.malloc_state, ptr %41, i32 0, i32 16
  %43 = call i32 @spin_acquire_lock(ptr noundef %42)
  %44 = icmp ne i32 %43, 0
  br i1 %44, label %67, label %47

45:                                               ; preds = %35
  br i1 false, label %67, label %47

46:                                               ; preds = %26
  br i1 false, label %67, label %47

47:                                               ; preds = %46, %45, %40
  call void @llvm.lifetime.start.p0(i64 8, ptr %9) #9
  %48 = load ptr, ptr %8, align 8, !tbaa !16
  %49 = load ptr, ptr %7, align 8, !tbaa !16
  %50 = load i64, ptr %6, align 8, !tbaa !3
  %51 = call ptr @try_realloc_chunk(ptr noundef %48, ptr noundef %49, i64 noundef %50, i32 noundef 0)
  store ptr %51, ptr %9, align 8, !tbaa !16
  %52 = load ptr, ptr %8, align 8, !tbaa !16
  %53 = getelementptr inbounds nuw %struct.malloc_state, ptr %52, i32 0, i32 15
  %54 = load i32, ptr %53, align 8, !tbaa !10
  %55 = and i32 %54, 2
  %56 = icmp ne i32 %55, 0
  br i1 %56, label %57, label %60

57:                                               ; preds = %47
  %58 = load ptr, ptr %8, align 8, !tbaa !16
  %59 = getelementptr inbounds nuw %struct.malloc_state, ptr %58, i32 0, i32 16
  store atomic i32 0, ptr %59 release, align 4
  br label %60

60:                                               ; preds = %57, %47
  %61 = load ptr, ptr %9, align 8, !tbaa !16
  %62 = load ptr, ptr %7, align 8, !tbaa !16
  %63 = icmp eq ptr %61, %62
  br i1 %63, label %64, label %66

64:                                               ; preds = %60
  %65 = load ptr, ptr %3, align 8, !tbaa !16
  store ptr %65, ptr %5, align 8, !tbaa !16
  br label %66

66:                                               ; preds = %64, %60
  call void @llvm.lifetime.end.p0(i64 8, ptr %9) #9
  br label %67

67:                                               ; preds = %66, %46, %45, %40
  call void @llvm.lifetime.end.p0(i64 8, ptr %8) #9
  call void @llvm.lifetime.end.p0(i64 8, ptr %7) #9
  call void @llvm.lifetime.end.p0(i64 8, ptr %6) #9
  br label %68

68:                                               ; preds = %67, %15
  br label %69

69:                                               ; preds = %68, %2
  %70 = load ptr, ptr %5, align 8, !tbaa !16
  call void @llvm.lifetime.end.p0(i64 8, ptr %5) #9
  ret ptr %70
}