; Function Attrs: nounwind uwtable
define hidden ptr @dlrealloc_in_place(ptr noundef %0, i64 noundef %1) local_unnamed_addr #0 {
  %.not = icmp eq ptr %0, null
  br i1 %.not, label %31, label %3

3:                                                ; preds = %2
  %4 = icmp ugt i64 %1, -129
  br i1 %4, label %5, label %7

5:                                                ; preds = %3
  %6 = tail call ptr @__errno_location() #19
  store i32 12, ptr %6, align 4, !tbaa !13
  br label %31

7:                                                ; preds = %3
  %8 = icmp ult i64 %1, 23
  %9 = add nuw i64 %1, 23
  %10 = and i64 %9, -16
  %11 = select i1 %8, i64 32, i64 %10
  %12 = getelementptr inbounds i8, ptr %0, i64 -16
  %13 = load i32, ptr getelementptr inbounds nuw (i8, ptr @_gm_, i64 880), align 8, !tbaa !9
  %14 = and i32 %13, 2
  %.not18 = icmp eq i32 %14, 0
  br i1 %.not18, label %spin_acquire_lock.exit, label %15

15:                                               ; preds = %7
  %16 = atomicrmw xchg ptr getelementptr inbounds nuw (i8, ptr @_gm_, i64 884), i32 1 seq_cst, align 4
  %.not19 = icmp eq i32 %16, 0
  br i1 %.not19, label %spin_acquire_lock.exit, label %.preheader

.preheader:                                       ; preds = %15, %.preheader.backedge
  %.0.i = phi i32 [ %20, %.preheader.backedge ], [ 0, %15 ]
  %17 = load volatile i32, ptr getelementptr inbounds nuw (i8, ptr @_gm_, i64 884), align 4, !tbaa !13
  %.not.i = icmp eq i32 %17, 0
  br i1 %.not.i, label %18, label %.critedge.i

18:                                               ; preds = %.preheader
  %19 = atomicrmw xchg ptr getelementptr inbounds nuw (i8, ptr @_gm_, i64 884), i32 1 seq_cst, align 4
  %.not2.i = icmp eq i32 %19, 0
  br i1 %.not2.i, label %spin_acquire_lock.exit, label %.critedge.i

.critedge.i:                                      ; preds = %18, %.preheader
  %20 = add nuw nsw i32 %.0.i, 1
  %21 = and i32 %20, 63
  %22 = icmp eq i32 %21, 0
  br i1 %22, label %23, label %.preheader.backedge

23:                                               ; preds = %.critedge.i
  %24 = tail call i32 @sched_yield() #17
  br label %.preheader.backedge

.preheader.backedge:                              ; preds = %23, %.critedge.i
  br label %.preheader, !llvm.loop !14

spin_acquire_lock.exit:                           ; preds = %18, %7, %15
  %25 = tail call fastcc ptr @try_realloc_chunk(ptr noundef nonnull @_gm_, ptr noundef %12, i64 noundef %11, i32 noundef 0)
  %26 = load i32, ptr getelementptr inbounds nuw (i8, ptr @_gm_, i64 880), align 8, !tbaa !9
  %27 = and i32 %26, 2
  %.not20 = icmp eq i32 %27, 0
  br i1 %.not20, label %29, label %28

28:                                               ; preds = %spin_acquire_lock.exit
  store atomic i32 0, ptr getelementptr inbounds nuw (i8, ptr @_gm_, i64 884) release, align 4
  br label %29

29:                                               ; preds = %28, %spin_acquire_lock.exit
  %30 = icmp eq ptr %25, %12
  %spec.select = select i1 %30, ptr %0, ptr null
  br label %31

31:                                               ; preds = %5, %29, %2
  %.0 = phi ptr [ null, %5 ], [ %spec.select, %29 ], [ null, %2 ]
  ret ptr %.0
}